target datalayout = "e-m:e-p270:32:32-p271:32:32-p272:64:64-i64:64-i128:128-f80:128-n8:16:32:64-S128"
target triple = "x86_64-pc-linux-gnu"

%struct.TupleDescData = type { i32, i32, i32, i32, ptr, [0 x %struct.CompactAttribute] }
%struct.CompactAttribute = type { i32, i16, i8, i8, i8, i8, i8, i8, i8 }
%struct.FormData_pg_attribute = type { i32, %struct.nameData, i32, i16, i16, i32, i16, i8, i8, i8, i8, i8, i8, i8, i8, i8, i8, i8, i16, i32 }
%struct.nameData = type { [64 x i8] }
%struct.TupleConstr = type { ptr, ptr, ptr, i16, i16, i8, i8, i8 }
%struct.AttrDefault = type { i16, ptr }
%struct.AttrMissing = type { i8, i64 }
%struct.ConstrCheck = type { ptr, ptr, i8, i8, i8 }

; Function Attrs: inlinehint nounwind uwtable
define internal ptr @DatumGetPointer(i64 noundef %0) #2 {
  %2 = alloca i64, align 8
  store i64 %0, ptr %2, align 8
  %3 = load i64, ptr %2, align 8
  %4 = inttoptr i64 %3 to ptr
  ret ptr %4
}

; Function Attrs: inlinehint nounwind uwtable
define internal ptr @TupleDescAttr(ptr noundef %0, i32 noundef %1) #2 {
  %3 = alloca ptr, align 8
  %4 = alloca i32, align 4
  %5 = alloca ptr, align 8
  store ptr %0, ptr %3, align 8
  store i32 %1, ptr %4, align 4
  call void @llvm.lifetime.start.p0(i64 8, ptr %5) #8
  %6 = load ptr, ptr %3, align 8
  %7 = load ptr, ptr %3, align 8
  %8 = getelementptr inbounds nuw %struct.TupleDescData, ptr %7, i32 0, i32 0
  %9 = load i32, ptr %8, align 8
  %10 = sext i32 %9 to i64
  %11 = mul i64 %10, 16
  %12 = add i64 24, %11
  %13 = getelementptr inbounds nuw i8, ptr %6, i64 %12
  store ptr %13, ptr %5, align 8
  %14 = load ptr, ptr %5, align 8
  %15 = load i32, ptr %4, align 4
  %16 = sext i32 %15 to i64
  %17 = getelementptr inbounds %struct.FormData_pg_attribute, ptr %14, i64 %16
  call void @llvm.lifetime.end.p0(i64 8, ptr %5) #8
  ret ptr %17
}

; Function Attrs: nounwind uwtable
define dso_local void @FreeTupleDesc(ptr noundef %0) #0 {
  %2 = alloca ptr, align 8
  %3 = alloca i32, align 4
  %4 = alloca ptr, align 8
  %5 = alloca ptr, align 8
  %6 = alloca ptr, align 8
  store ptr %0, ptr %2, align 8
  call void @llvm.lifetime.start.p0(i64 4, ptr %3) #8
  %7 = load ptr, ptr %2, align 8
  %8 = getelementptr inbounds nuw %struct.TupleDescData, ptr %7, i32 0, i32 4
  %9 = load ptr, ptr %8, align 8
  %10 = icmp ne ptr %9, null
  br i1 %10, label %11, label %142

11:                                               ; preds = %1
  %12 = load ptr, ptr %2, align 8
  %13 = getelementptr inbounds nuw %struct.TupleDescData, ptr %12, i32 0, i32 4
  %14 = load ptr, ptr %13, align 8
  %15 = getelementptr inbounds nuw %struct.TupleConstr, ptr %14, i32 0, i32 3
  %16 = load i16, ptr %15, align 8
  %17 = zext i16 %16 to i32
  %18 = icmp sgt i32 %17, 0
  br i1 %18, label %19, label %47

19:                                               ; preds = %11
  call void @llvm.lifetime.start.p0(i64 8, ptr %4) #8
  %20 = load ptr, ptr %2, align 8
  %21 = getelementptr inbounds nuw %struct.TupleDescData, ptr %20, i32 0, i32 4
  %22 = load ptr, ptr %21, align 8
  %23 = getelementptr inbounds nuw %struct.TupleConstr, ptr %22, i32 0, i32 0
  %24 = load ptr, ptr %23, align 8
  store ptr %24, ptr %4, align 8
  %25 = load ptr, ptr %2, align 8
  %26 = getelementptr inbounds nuw %struct.TupleDescData, ptr %25, i32 0, i32 4
  %27 = load ptr, ptr %26, align 8
  %28 = getelementptr inbounds nuw %struct.TupleConstr, ptr %27, i32 0, i32 3
  %29 = load i16, ptr %28, align 8
  %30 = zext i16 %29 to i32
  %31 = sub i32 %30, 1
  store i32 %31, ptr %3, align 4
  br label %32

32:                                               ; preds = %42, %19
  %33 = load i32, ptr %3, align 4
  %34 = icmp sge i32 %33, 0
  br i1 %34, label %35, label %45

35:                                               ; preds = %32
  %36 = load ptr, ptr %4, align 8
  %37 = load i32, ptr %3, align 4
  %38 = sext i32 %37 to i64
  %39 = getelementptr inbounds %struct.AttrDefault, ptr %36, i64 %38
  %40 = getelementptr inbounds nuw %struct.AttrDefault, ptr %39, i32 0, i32 1
  %41 = load ptr, ptr %40, align 8
  call void @pfree(ptr noundef %41)
  br label %42

42:                                               ; preds = %35
  %43 = load i32, ptr %3, align 4
  %44 = add i32 %43, -1
  store i32 %44, ptr %3, align 4
  br label %32, !llvm.loop !15

45:                                               ; preds = %32
  %46 = load ptr, ptr %4, align 8
  call void @pfree(ptr noundef %46)
  call void @llvm.lifetime.end.p0(i64 8, ptr %4) #8
  br label %47

47:                                               ; preds = %45, %11
  %48 = load ptr, ptr %2, align 8
  %49 = getelementptr inbounds nuw %struct.TupleDescData, ptr %48, i32 0, i32 4
  %50 = load ptr, ptr %49, align 8
  %51 = getelementptr inbounds nuw %struct.TupleConstr, ptr %50, i32 0, i32 2
  %52 = load ptr, ptr %51, align 8
  %53 = icmp ne ptr %52, null
  br i1 %53, label %54, label %96

54:                                               ; preds = %47
  call void @llvm.lifetime.start.p0(i64 8, ptr %5) #8
  %55 = load ptr, ptr %2, align 8
  %56 = getelementptr inbounds nuw %struct.TupleDescData, ptr %55, i32 0, i32 4
  %57 = load ptr, ptr %56, align 8
  %58 = getelementptr inbounds nuw %struct.TupleConstr, ptr %57, i32 0, i32 2
  %59 = load ptr, ptr %58, align 8
  store ptr %59, ptr %5, align 8
  %60 = load ptr, ptr %2, align 8
  %61 = getelementptr inbounds nuw %struct.TupleDescData, ptr %60, i32 0, i32 0
  %62 = load i32, ptr %61, align 8
  %63 = sub i32 %62, 1
  store i32 %63, ptr %3, align 4
  br label %64

64:                                               ; preds = %91, %54
  %65 = load i32, ptr %3, align 4
  %66 = icmp sge i32 %65, 0
  br i1 %66, label %67, label %94

67:                                               ; preds = %64
  %68 = load ptr, ptr %5, align 8
  %69 = load i32, ptr %3, align 4
  %70 = sext i32 %69 to i64
  %71 = getelementptr inbounds %struct.AttrMissing, ptr %68, i64 %70
  %72 = getelementptr inbounds nuw %struct.AttrMissing, ptr %71, i32 0, i32 0
  %73 = load i8, ptr %72, align 8, !range !4, !noundef !5
  %74 = trunc i8 %73 to i1
  br i1 %74, label %75, label %90

75:                                               ; preds = %67
  %76 = load ptr, ptr %2, align 8
  %77 = load i32, ptr %3, align 4
  %78 = call ptr @TupleDescAttr(ptr noundef %76, i32 noundef %77)
  %79 = getelementptr inbounds nuw %struct.FormData_pg_attribute, ptr %78, i32 0, i32 7
  %80 = load i8, ptr %79, align 2, !range !4, !noundef !5
  %81 = trunc i8 %80 to i1
  br i1 %81, label %90, label %82

82:                                               ; preds = %75
  %83 = load ptr, ptr %5, align 8
  %84 = load i32, ptr %3, align 4
  %85 = sext i32 %84 to i64
  %86 = getelementptr inbounds %struct.AttrMissing, ptr %83, i64 %85
  %87 = getelementptr inbounds nuw %struct.AttrMissing, ptr %86, i32 0, i32 1
  %88 = load i64, ptr %87, align 8
  %89 = call ptr @DatumGetPointer(i64 noundef %88)
  call void @pfree(ptr noundef %89)
  br label %90

90:                                               ; preds = %82, %75, %67
  br label %91

91:                                               ; preds = %90
  %92 = load i32, ptr %3, align 4
  %93 = add i32 %92, -1
  store i32 %93, ptr %3, align 4
  br label %64, !llvm.loop !16

94:                                               ; preds = %64
  %95 = load ptr, ptr %5, align 8
  call void @pfree(ptr noundef %95)
  call void @llvm.lifetime.end.p0(i64 8, ptr %5) #8
  br label %96

96:                                               ; preds = %94, %47
  %97 = load ptr, ptr %2, align 8
  %98 = getelementptr inbounds nuw %struct.TupleDescData, ptr %97, i32 0, i32 4
  %99 = load ptr, ptr %98, align 8
  %100 = getelementptr inbounds nuw %struct.TupleConstr, ptr %99, i32 0, i32 4
  %101 = load i16, ptr %100, align 2
  %102 = zext i16 %101 to i32
  %103 = icmp sgt i32 %102, 0
  br i1 %103, label %104, label %138

104:                                              ; preds = %96
  call void @llvm.lifetime.start.p0(i64 8, ptr %6) #8
  %105 = load ptr, ptr %2, align 8
  %106 = getelementptr inbounds nuw %struct.TupleDescData, ptr %105, i32 0, i32 4
  %107 = load ptr, ptr %106, align 8
  %108 = getelementptr inbounds nuw %struct.TupleConstr, ptr %107, i32 0, i32 1
  %109 = load ptr, ptr %108, align 8
  store ptr %109, ptr %6, align 8
  %110 = load ptr, ptr %2, align 8
  %111 = getelementptr inbounds nuw %struct.TupleDescData, ptr %110, i32 0, i32 4
  %112 = load ptr, ptr %111, align 8
  %113 = getelementptr inbounds nuw %struct.TupleConstr, ptr %112, i32 0, i32 4
  %114 = load i16, ptr %113, align 2
  %115 = zext i16 %114 to i32
  %116 = sub i32 %115, 1
  store i32 %116, ptr %3, align 4
  br label %117

117:                                              ; preds = %133, %104
  %118 = load i32, ptr %3, align 4
  %119 = icmp sge i32 %118, 0
  br i1 %119, label %120, label %136

120:                                              ; preds = %117
  %121 = load ptr, ptr %6, align 8
  %122 = load i32, ptr %3, align 4
  %123 = sext i32 %122 to i64
  %124 = getelementptr inbounds %struct.ConstrCheck, ptr %121, i64 %123
  %125 = getelementptr inbounds nuw %struct.ConstrCheck, ptr %124, i32 0, i32 0
  %126 = load ptr, ptr %125, align 8
  call void @pfree(ptr noundef %126)
  %127 = load ptr, ptr %6, align 8
  %128 = load i32, ptr %3, align 4
  %129 = sext i32 %128 to i64
  %130 = getelementptr inbounds %struct.ConstrCheck, ptr %127, i64 %129
  %131 = getelementptr inbounds nuw %struct.ConstrCheck, ptr %130, i32 0, i32 1
  %132 = load ptr, ptr %131, align 8
  call void @pfree(ptr noundef %132)
  br label %133

133:                                              ; preds = %120
  %134 = load i32, ptr %3, align 4
  %135 = add i32 %134, -1
  store i32 %135, ptr %3, align 4
  br label %117, !llvm.loop !17

136:                                              ; preds = %117
  %137 = load ptr, ptr %6, align 8
  call void @pfree(ptr noundef %137)
  call void @llvm.lifetime.end.p0(i64 8, ptr %6) #8
  br label %138

138:                                              ; preds = %136, %96
  %139 = load ptr, ptr %2, align 8
  %140 = getelementptr inbounds nuw %struct.TupleDescData, ptr %139, i32 0, i32 4
  %141 = load ptr, ptr %140, align 8
  call void @pfree(ptr noundef %141)
  br label %142

142:                                              ; preds = %138, %1
  %143 = load ptr, ptr %2, align 8
  call void @pfree(ptr noundef %143)
  call void @llvm.lifetime.end.p0(i64 4, ptr %3) #8
  ret void
}