; Function Attrs: nounwind uwtable
define dso_local void @FreeTupleDesc(ptr noundef %0) local_unnamed_addr #0 {
  %2 = getelementptr inbounds nuw i8, ptr %0, i64 16
  %3 = load ptr, ptr %2, align 8
  %.not = icmp eq ptr %3, null
  br i1 %.not, label %56, label %4

4:                                                ; preds = %1
  %5 = getelementptr inbounds nuw i8, ptr %3, i64 24
  %6 = load i16, ptr %5, align 8
  %.not36 = icmp eq i16 %6, 0
  br i1 %.not36, label %15, label %7

7:                                                ; preds = %4
  %8 = load ptr, ptr %3, align 8
  %9 = zext i16 %6 to i64
  br label %10

10:                                               ; preds = %7, %10
  %indvars.iv = phi i64 [ %9, %7 ], [ %indvars.iv.next, %10 ]
  %indvars.iv.next = add nsw i64 %indvars.iv, -1
  %11 = getelementptr inbounds nuw %struct.AttrDefault, ptr %8, i64 %indvars.iv.next, i32 1
  %12 = load ptr, ptr %11, align 8
  tail call void @pfree(ptr noundef %12) #11
  %13 = icmp samesign ugt i64 %indvars.iv, 1
  br i1 %13, label %10, label %14, !llvm.loop !15

14:                                               ; preds = %10
  tail call void @pfree(ptr noundef nonnull %8) #11
  %.pre = load ptr, ptr %2, align 8
  br label %15

15:                                               ; preds = %14, %4
  %16 = phi ptr [ %.pre, %14 ], [ %3, %4 ]
  %17 = getelementptr inbounds nuw i8, ptr %16, i64 16
  %18 = load ptr, ptr %17, align 8
  %.not37 = icmp eq ptr %18, null
  br i1 %.not37, label %39, label %19

19:                                               ; preds = %15
  %20 = load i32, ptr %0, align 8
  %invariant.gep = getelementptr i8, ptr %0, i64 106
  %.140 = add i32 %20, -1
  %21 = icmp sgt i32 %.140, -1
  br i1 %21, label %.lr.ph.preheader, label %._crit_edge

.lr.ph.preheader:                                 ; preds = %19
  %22 = zext nneg i32 %.140 to i64
  br label %.lr.ph

.lr.ph:                                           ; preds = %.lr.ph.preheader, %37
  %indvars.iv44 = phi i64 [ %22, %.lr.ph.preheader ], [ %indvars.iv.next45, %37 ]
  %23 = getelementptr inbounds nuw %struct.AttrMissing, ptr %18, i64 %indvars.iv44
  %24 = load i8, ptr %23, align 8, !range !4, !noundef !5
  %25 = trunc nuw i8 %24 to i1
  br i1 %25, label %26, label %37

26:                                               ; preds = %.lr.ph
  %27 = load i32, ptr %0, align 8
  %28 = sext i32 %27 to i64
  %29 = shl nsw i64 %28, 4
  %.idx = mul nuw nsw i64 %indvars.iv44, 100
  %gep = getelementptr i8, ptr %invariant.gep, i64 %29
  %30 = getelementptr i8, ptr %gep, i64 %.idx
  %31 = load i8, ptr %30, align 2, !range !4, !noundef !5
  %32 = trunc nuw i8 %31 to i1
  br i1 %32, label %37, label %33

33:                                               ; preds = %26
  %34 = getelementptr inbounds nuw i8, ptr %23, i64 8
  %35 = load i64, ptr %34, align 8
  %36 = inttoptr i64 %35 to ptr
  tail call void @pfree(ptr noundef %36) #11
  br label %37

37:                                               ; preds = %.lr.ph, %26, %33
  %indvars.iv.next45 = add nsw i64 %indvars.iv44, -1
  %38 = icmp sgt i64 %indvars.iv44, 0
  br i1 %38, label %.lr.ph, label %._crit_edge, !llvm.loop !16

._crit_edge:                                      ; preds = %37, %19
  tail call void @pfree(ptr noundef nonnull %18) #11
  %.pre50 = load ptr, ptr %2, align 8
  br label %39

39:                                               ; preds = %._crit_edge, %15
  %40 = phi ptr [ %.pre50, %._crit_edge ], [ %16, %15 ]
  %41 = getelementptr inbounds nuw i8, ptr %40, i64 26
  %42 = load i16, ptr %41, align 2
  %.not38 = icmp eq i16 %42, 0
  br i1 %.not38, label %54, label %43

43:                                               ; preds = %39
  %44 = getelementptr inbounds nuw i8, ptr %40, i64 8
  %45 = load ptr, ptr %44, align 8
  %46 = zext i16 %42 to i64
  br label %47

47:                                               ; preds = %43, %47
  %indvars.iv47 = phi i64 [ %46, %43 ], [ %indvars.iv.next48, %47 ]
  %indvars.iv.next48 = add nsw i64 %indvars.iv47, -1
  %48 = getelementptr inbounds nuw %struct.ConstrCheck, ptr %45, i64 %indvars.iv.next48
  %49 = load ptr, ptr %48, align 8
  tail call void @pfree(ptr noundef %49) #11
  %50 = getelementptr inbounds nuw i8, ptr %48, i64 8
  %51 = load ptr, ptr %50, align 8
  tail call void @pfree(ptr noundef %51) #11
  %52 = icmp samesign ugt i64 %indvars.iv47, 1
  br i1 %52, label %47, label %53, !llvm.loop !17

53:                                               ; preds = %47
  tail call void @pfree(ptr noundef nonnull %45) #11
  %.pre51 = load ptr, ptr %2, align 8
  br label %54

54:                                               ; preds = %53, %39
  %55 = phi ptr [ %.pre51, %53 ], [ %40, %39 ]
  tail call void @pfree(ptr noundef %55) #11
  br label %56

56:                                               ; preds = %54, %1
  tail call void @pfree(ptr noundef nonnull %0) #11
  ret void
}